target datalayout = "e-m:e-p270:32:32-p271:32:32-p272:64:64-i64:64-i128:128-f80:128-n8:16:32:64-S128"
target triple = "x86_64-pc-linux-gnu"

%struct._ir_strtab = type { ptr, i32, i32, i32, i32, ptr, i32, i32 }
%struct._ir_strtab_bucket = type { i32, i32, ptr, i32, i32 }

; Function Attrs: nounwind uwtable
define internal i32 @ir_str_hash(ptr noundef %0, i64 noundef %1) #0 {
  %3 = alloca ptr, align 8
  %4 = alloca i64, align 8
  %5 = alloca i64, align 8
  %6 = alloca i32, align 4
  store ptr %0, ptr %3, align 8, !tbaa !11
  store i64 %1, ptr %4, align 8, !tbaa !30
  call void @llvm.lifetime.start.p0(i64 8, ptr %5) #10
  call void @llvm.lifetime.start.p0(i64 4, ptr %6) #10
  store i32 5381, ptr %6, align 4, !tbaa !9
  store i64 0, ptr %5, align 8, !tbaa !30
  br label %7

7:                                                ; preds = %22, %2
  %8 = load i64, ptr %5, align 8, !tbaa !30
  %9 = load i64, ptr %4, align 8, !tbaa !30
  %10 = icmp ult i64 %8, %9
  br i1 %10, label %11, label %25

11:                                               ; preds = %7
  %12 = load i32, ptr %6, align 4, !tbaa !9
  %13 = shl i32 %12, 5
  %14 = load i32, ptr %6, align 4, !tbaa !9
  %15 = add i32 %13, %14
  %16 = load ptr, ptr %3, align 8, !tbaa !11
  %17 = load i8, ptr %16, align 1, !tbaa !32
  %18 = sext i8 %17 to i32
  %19 = add i32 %15, %18
  store i32 %19, ptr %6, align 4, !tbaa !9
  %20 = load ptr, ptr %3, align 8, !tbaa !11
  %21 = getelementptr inbounds nuw i8, ptr %20, i32 1
  store ptr %21, ptr %3, align 8, !tbaa !11
  br label %22

22:                                               ; preds = %11
  %23 = load i64, ptr %5, align 8, !tbaa !30
  %24 = add i64 %23, 1
  store i64 %24, ptr %5, align 8, !tbaa !30
  br label %7

25:                                               ; preds = %7
  %26 = load i32, ptr %6, align 4, !tbaa !9
  %27 = or i32 %26, 268435456
  call void @llvm.lifetime.end.p0(i64 4, ptr %6) #10
  call void @llvm.lifetime.end.p0(i64 8, ptr %5) #10
  ret i32 %27
}

; Function Attrs: nounwind uwtable
define hidden i32 @ir_strtab_update(ptr noundef %0, ptr noundef %1, i32 noundef %2, i32 noundef %3) #0 {
  %5 = alloca i32, align 4
  %6 = alloca ptr, align 8
  %7 = alloca ptr, align 8
  %8 = alloca i32, align 4
  %9 = alloca i32, align 4
  %10 = alloca i32, align 4
  %11 = alloca ptr, align 8
  %12 = alloca i32, align 4
  %13 = alloca ptr, align 8
  %14 = alloca i32, align 4
  store ptr %0, ptr %6, align 8, !tbaa !4
  store ptr %1, ptr %7, align 8, !tbaa !11
  store i32 %2, ptr %8, align 4, !tbaa !9
  store i32 %3, ptr %9, align 4, !tbaa !9
  call void @llvm.lifetime.start.p0(i64 4, ptr %10) #10
  %15 = load ptr, ptr %7, align 8, !tbaa !11
  %16 = load i32, ptr %8, align 4, !tbaa !9
  %17 = zext i32 %16 to i64
  %18 = call i32 @ir_str_hash(ptr noundef %15, i64 noundef %17)
  store i32 %18, ptr %10, align 4, !tbaa !9
  call void @llvm.lifetime.start.p0(i64 8, ptr %11) #10
  %19 = load ptr, ptr %6, align 8, !tbaa !4
  %20 = getelementptr inbounds nuw %struct._ir_strtab, ptr %19, i32 0, i32 0
  %21 = load ptr, ptr %20, align 8, !tbaa !13
  store ptr %21, ptr %11, align 8, !tbaa !11
  call void @llvm.lifetime.start.p0(i64 4, ptr %12) #10
  %22 = load ptr, ptr %11, align 8, !tbaa !11
  %23 = load i32, ptr %10, align 4, !tbaa !9
  %24 = load ptr, ptr %6, align 8, !tbaa !4
  %25 = getelementptr inbounds nuw %struct._ir_strtab, ptr %24, i32 0, i32 1
  %26 = load i32, ptr %25, align 8, !tbaa !15
  %27 = or i32 %23, %26
  %28 = sext i32 %27 to i64
  %29 = getelementptr inbounds i32, ptr %22, i64 %28
  %30 = load i32, ptr %29, align 4, !tbaa !9
  store i32 %30, ptr %12, align 4, !tbaa !9
  call void @llvm.lifetime.start.p0(i64 8, ptr %13) #10
  br label %31

31:                                               ; preds = %63, %4
  %32 = load i32, ptr %12, align 4, !tbaa !9
  %33 = icmp ne i32 %32, -1
  br i1 %33, label %34, label %67

34:                                               ; preds = %31
  %35 = load ptr, ptr %11, align 8, !tbaa !11
  %36 = load i32, ptr %12, align 4, !tbaa !9
  %37 = zext i32 %36 to i64
  %38 = getelementptr inbounds nuw i8, ptr %35, i64 %37
  store ptr %38, ptr %13, align 8, !tbaa !22
  %39 = load ptr, ptr %13, align 8, !tbaa !22
  %40 = getelementptr inbounds nuw %struct._ir_strtab_bucket, ptr %39, i32 0, i32 0
  %41 = load i32, ptr %40, align 8, !tbaa !24
  %42 = load i32, ptr %10, align 4, !tbaa !9
  %43 = icmp eq i32 %41, %42
  br i1 %43, label %44, label %63

44:                                               ; preds = %34
  %45 = load ptr, ptr %13, align 8, !tbaa !22
  %46 = getelementptr inbounds nuw %struct._ir_strtab_bucket, ptr %45, i32 0, i32 1
  %47 = load i32, ptr %46, align 4, !tbaa !26
  %48 = load i32, ptr %8, align 4, !tbaa !9
  %49 = icmp eq i32 %47, %48
  br i1 %49, label %50, label %63

50:                                               ; preds = %44
  %51 = load ptr, ptr %13, align 8, !tbaa !22
  %52 = getelementptr inbounds nuw %struct._ir_strtab_bucket, ptr %51, i32 0, i32 2
  %53 = load ptr, ptr %52, align 8, !tbaa !27
  %54 = load ptr, ptr %7, align 8, !tbaa !11
  %55 = load i32, ptr %8, align 4, !tbaa !9
  %56 = zext i32 %55 to i64
  %57 = call i32 @memcmp(ptr noundef %53, ptr noundef %54, i64 noundef %56) #12
  %58 = icmp eq i32 %57, 0
  br i1 %58, label %59, label %63

59:                                               ; preds = %50
  %60 = load i32, ptr %9, align 4, !tbaa !9
  %61 = load ptr, ptr %13, align 8, !tbaa !22
  %62 = getelementptr inbounds nuw %struct._ir_strtab_bucket, ptr %61, i32 0, i32 4
  store i32 %60, ptr %62, align 4, !tbaa !28
  store i32 %60, ptr %5, align 4
  store i32 1, ptr %14, align 4
  br label %68

63:                                               ; preds = %50, %44, %34
  %64 = load ptr, ptr %13, align 8, !tbaa !22
  %65 = getelementptr inbounds nuw %struct._ir_strtab_bucket, ptr %64, i32 0, i32 3
  %66 = load i32, ptr %65, align 8, !tbaa !29
  store i32 %66, ptr %12, align 4, !tbaa !9
  br label %31

67:                                               ; preds = %31
  store i32 0, ptr %5, align 4
  store i32 1, ptr %14, align 4
  br label %68

68:                                               ; preds = %67, %59
  call void @llvm.lifetime.end.p0(i64 8, ptr %13) #10
  call void @llvm.lifetime.end.p0(i64 4, ptr %12) #10
  call void @llvm.lifetime.end.p0(i64 8, ptr %11) #10
  call void @llvm.lifetime.end.p0(i64 4, ptr %10) #10
  %69 = load i32, ptr %5, align 4
  ret i32 %69
}