; Function Attrs: nofree nounwind memory(readwrite, inaccessiblemem: none) uwtable
define hidden noundef i32 @ir_strtab_update(ptr noundef readonly captures(none) %0, ptr noundef readonly captures(none) %1, i32 noundef %2, i32 noundef %3) local_unnamed_addr #5 {
  %5 = zext i32 %2 to i64
  %.not.i = icmp eq i32 %2, 0
  br i1 %.not.i, label %ir_str_hash.exit, label %.lr.ph.i

.lr.ph.i:                                         ; preds = %4, %.lr.ph.i
  %.011.i = phi i32 [ %9, %.lr.ph.i ], [ 5381, %4 ]
  %.0710.i = phi i64 [ %11, %.lr.ph.i ], [ 0, %4 ]
  %.089.i = phi ptr [ %10, %.lr.ph.i ], [ %1, %4 ]
  %6 = mul i32 %.011.i, 33
  %7 = load i8, ptr %.089.i, align 1, !tbaa !18
  %8 = sext i8 %7 to i32
  %9 = add i32 %6, %8
  %10 = getelementptr inbounds nuw i8, ptr %.089.i, i64 1
  %11 = add nuw nsw i64 %.0710.i, 1
  %exitcond.not.i = icmp eq i64 %11, %5
  br i1 %exitcond.not.i, label %._crit_edge.loopexit.i, label %.lr.ph.i

._crit_edge.loopexit.i:                           ; preds = %.lr.ph.i
  %12 = or i32 %9, 268435456
  br label %ir_str_hash.exit

ir_str_hash.exit:                                 ; preds = %4, %._crit_edge.loopexit.i
  %.0.lcssa.i = phi i32 [ 268440837, %4 ], [ %12, %._crit_edge.loopexit.i ]
  %13 = load ptr, ptr %0, align 8, !tbaa !4
  %14 = getelementptr inbounds nuw i8, ptr %0, i64 8
  %15 = load i32, ptr %14, align 8, !tbaa !11
  %16 = or i32 %15, %.0.lcssa.i
  %17 = sext i32 %16 to i64
  %18 = getelementptr inbounds i32, ptr %13, i64 %17
  %.01921 = load i32, ptr %18, align 4, !tbaa !19
  %.not22 = icmp eq i32 %.01921, -1
  br i1 %.not22, label %.loopexit, label %.lr.ph

.lr.ph:                                           ; preds = %ir_str_hash.exit, %33
  %.01923 = phi i32 [ %.019, %33 ], [ %.01921, %ir_str_hash.exit ]
  %19 = zext i32 %.01923 to i64
  %20 = getelementptr inbounds nuw i8, ptr %13, i64 %19
  %21 = load i32, ptr %20, align 8, !tbaa !20
  %22 = icmp eq i32 %21, %.0.lcssa.i
  br i1 %22, label %23, label %33

23:                                               ; preds = %.lr.ph
  %24 = getelementptr inbounds nuw i8, ptr %20, i64 4
  %25 = load i32, ptr %24, align 4, !tbaa !22
  %26 = icmp eq i32 %25, %2
  br i1 %26, label %27, label %33

27:                                               ; preds = %23
  %28 = getelementptr inbounds nuw i8, ptr %20, i64 8
  %29 = load ptr, ptr %28, align 8, !tbaa !23
  %bcmp = tail call i32 @bcmp(ptr %29, ptr %1, i64 %5)
  %30 = icmp eq i32 %bcmp, 0
  br i1 %30, label %31, label %33

31:                                               ; preds = %27
  %32 = getelementptr inbounds nuw i8, ptr %20, i64 20
  store i32 %3, ptr %32, align 4, !tbaa !24
  br label %.loopexit

33:                                               ; preds = %27, %23, %.lr.ph
  %34 = getelementptr inbounds nuw i8, ptr %20, i64 16
  %.019 = load i32, ptr %34, align 4, !tbaa !19
  %.not = icmp eq i32 %.019, -1
  br i1 %.not, label %.loopexit, label %.lr.ph

.loopexit:                                        ; preds = %33, %ir_str_hash.exit, %31
  %.0 = phi i32 [ %3, %31 ], [ 0, %ir_str_hash.exit ], [ 0, %33 ]
  ret i32 %.0
}